; Function Attrs: mustprogress uwtable
define internal fastcc void @_ZN4toku8treenode17traverse_overlapsIZNS_L38iterate_and_get_overlapping_row_locks2EPKNS_15concurrent_tree15locked_keyrangeEPK10__toku_dbtS8_PNS_10comparatorEmPNS_13GrowableArrayINS_8row_lockEEEE11copy_fn_objEEvRKNS_8keyrangeEPT_(ptr noundef nonnull align 8 dereferenceable(202) %0, ptr noundef nonnull align 8 dereferenceable(81) %1, ptr noundef nonnull %2) unnamed_addr #0 align 2 {
  %4 = getelementptr inbounds nuw i8, ptr %0, i64 192
  %5 = load ptr, ptr %4, align 8, !tbaa !173
  %6 = getelementptr inbounds nuw i8, ptr %0, i64 48
  %7 = tail call noundef i32 @_ZNK4toku8keyrange7compareERKNS_10comparatorERKS0_(ptr noundef nonnull align 8 dereferenceable(81) %1, ptr noundef nonnull align 8 dereferenceable(17) %5, ptr noundef nonnull align 8 dereferenceable(81) %6)
  %8 = icmp eq i32 %7, 0
  br i1 %8, label %9, label %17

9:                                                ; preds = %3
  %10 = getelementptr inbounds nuw i8, ptr %0, i64 136
  %11 = load i64, ptr %10, align 8, !tbaa !176
  %12 = getelementptr inbounds nuw i8, ptr %0, i64 144
  %13 = load i8, ptr %12, align 8, !tbaa !177, !range !67, !noundef !68
  %14 = trunc nuw i8 %13 to i1
  %15 = getelementptr inbounds nuw i8, ptr %0, i64 152
  %16 = load ptr, ptr %15, align 8, !tbaa !178
  tail call fastcc void @_ZZN4tokuL38iterate_and_get_overlapping_row_locks2EPKNS_15concurrent_tree15locked_keyrangeEPK10__toku_dbtS6_PNS_10comparatorEmPNS_13GrowableArrayINS_8row_lockEEEEN11copy_fn_obj2fnERKNS_8keyrangeEmbP11TxnidVector(ptr noundef nonnull align 8 dereferenceable(40) %2, ptr noundef nonnull align 8 dereferenceable(81) %6, i64 noundef %11, i1 noundef zeroext %14, ptr noundef %16)
  br label %41

17:                                               ; preds = %3
  %18 = getelementptr inbounds nuw i8, ptr %0, i64 160
  %19 = tail call noundef ptr @_ZN4toku8treenode9child_ptr10get_lockedEv(ptr noundef nonnull align 8 dereferenceable(16) %18)
  %.not = icmp eq ptr %19, null
  br i1 %.not, label %23, label %20

20:                                               ; preds = %17
  %.not22 = icmp eq i32 %7, 2
  br i1 %.not22, label %22, label %21

21:                                               ; preds = %20
  tail call fastcc void @_ZN4toku8treenode17traverse_overlapsIZNS_L38iterate_and_get_overlapping_row_locks2EPKNS_15concurrent_tree15locked_keyrangeEPK10__toku_dbtS8_PNS_10comparatorEmPNS_13GrowableArrayINS_8row_lockEEEE11copy_fn_objEEvRKNS_8keyrangeEPT_(ptr noundef nonnull align 8 dereferenceable(202) %19, ptr noundef nonnull align 8 dereferenceable(81) %1, ptr noundef %2)
  br label %22

22:                                               ; preds = %21, %20
  tail call void @_ZN4toku8treenode12mutex_unlockEv(ptr noundef nonnull align 8 dereferenceable(202) %19)
  br label %23

23:                                               ; preds = %22, %17
  %24 = icmp eq i32 %7, 3
  br i1 %24, label %.thread, label %25

25:                                               ; preds = %23
  %26 = getelementptr inbounds nuw i8, ptr %0, i64 176
  %27 = tail call noundef ptr @_ZN4toku8treenode9child_ptr10get_lockedEv(ptr noundef nonnull align 8 dereferenceable(16) %26)
  %.not23 = icmp eq ptr %27, null
  br i1 %.not23, label %41, label %37

.thread:                                          ; preds = %23
  %28 = getelementptr inbounds nuw i8, ptr %0, i64 136
  %29 = load i64, ptr %28, align 8, !tbaa !176
  %30 = getelementptr inbounds nuw i8, ptr %0, i64 144
  %31 = load i8, ptr %30, align 8, !tbaa !177, !range !67, !noundef !68
  %32 = trunc nuw i8 %31 to i1
  %33 = getelementptr inbounds nuw i8, ptr %0, i64 152
  %34 = load ptr, ptr %33, align 8, !tbaa !178
  tail call fastcc void @_ZZN4tokuL38iterate_and_get_overlapping_row_locks2EPKNS_15concurrent_tree15locked_keyrangeEPK10__toku_dbtS6_PNS_10comparatorEmPNS_13GrowableArrayINS_8row_lockEEEEN11copy_fn_obj2fnERKNS_8keyrangeEmbP11TxnidVector(ptr noundef nonnull align 8 dereferenceable(40) %2, ptr noundef nonnull align 8 dereferenceable(81) %6, i64 noundef %29, i1 noundef zeroext %32, ptr noundef %34)
  %35 = getelementptr inbounds nuw i8, ptr %0, i64 176
  %36 = tail call noundef ptr @_ZN4toku8treenode9child_ptr10get_lockedEv(ptr noundef nonnull align 8 dereferenceable(16) %35)
  %.not2325 = icmp eq ptr %36, null
  br i1 %.not2325, label %41, label %.thread26

37:                                               ; preds = %25
  %.not24 = icmp eq i32 %7, 1
  br i1 %.not24, label %39, label %.thread26

.thread26:                                        ; preds = %.thread, %37
  %38 = phi ptr [ %27, %37 ], [ %36, %.thread ]
  tail call fastcc void @_ZN4toku8treenode17traverse_overlapsIZNS_L38iterate_and_get_overlapping_row_locks2EPKNS_15concurrent_tree15locked_keyrangeEPK10__toku_dbtS8_PNS_10comparatorEmPNS_13GrowableArrayINS_8row_lockEEEE11copy_fn_objEEvRKNS_8keyrangeEPT_(ptr noundef nonnull align 8 dereferenceable(202) %38, ptr noundef nonnull align 8 dereferenceable(81) %1, ptr noundef %2)
  br label %39

39:                                               ; preds = %.thread26, %37
  %40 = phi ptr [ %38, %.thread26 ], [ %27, %37 ]
  tail call void @_ZN4toku8treenode12mutex_unlockEv(ptr noundef nonnull align 8 dereferenceable(202) %40)
  br label %41

41:                                               ; preds = %.thread, %39, %25, %9
  ret void
}